target datalayout = "e-m:e-p270:32:32-p271:32:32-p272:64:64-i64:64-i128:128-f80:128-n8:16:32:64-S128"
target triple = "x86_64-pc-linux-gnu"

; Function Attrs: alwaysinline nounwind willreturn memory(none) uwtable
define internal zeroext i8 @av_clip_uint8_c(i32 noundef %0) #3 {
  %2 = alloca i8, align 1
  %3 = alloca i32, align 4
  store i32 %0, ptr %3, align 4, !tbaa !13
  %4 = load i32, ptr %3, align 4, !tbaa !13
  %5 = and i32 %4, -256
  %6 = icmp ne i32 %5, 0
  br i1 %6, label %7, label %12

7:                                                ; preds = %1
  %8 = load i32, ptr %3, align 4, !tbaa !13
  %9 = xor i32 %8, -1
  %10 = ashr i32 %9, 31
  %11 = trunc i32 %10 to i8
  store i8 %11, ptr %2, align 1
  br label %15

12:                                               ; preds = %1
  %13 = load i32, ptr %3, align 4, !tbaa !13
  %14 = trunc i32 %13 to i8
  store i8 %14, ptr %2, align 1
  br label %15

15:                                               ; preds = %12, %7
  %16 = load i8, ptr %2, align 1
  ret i8 %16
}

; Function Attrs: inlinehint nounwind uwtable
define internal void @idctSparseColAdd_int16_8bit(ptr noundef %0, i64 noundef %1, ptr noundef %2) #2 {
  %4 = alloca ptr, align 8
  %5 = alloca i64, align 8
  %6 = alloca ptr, align 8
  %7 = alloca i32, align 4
  %8 = alloca i32, align 4
  %9 = alloca i32, align 4
  %10 = alloca i32, align 4
  %11 = alloca i32, align 4
  %12 = alloca i32, align 4
  %13 = alloca i32, align 4
  %14 = alloca i32, align 4
  store ptr %0, ptr %4, align 8, !tbaa !4
  store i64 %1, ptr %5, align 8, !tbaa !9
  store ptr %2, ptr %6, align 8, !tbaa !11
  call void @llvm.lifetime.start.p0(i64 4, ptr %7) #4
  call void @llvm.lifetime.start.p0(i64 4, ptr %8) #4
  call void @llvm.lifetime.start.p0(i64 4, ptr %9) #4
  call void @llvm.lifetime.start.p0(i64 4, ptr %10) #4
  call void @llvm.lifetime.start.p0(i64 4, ptr %11) #4
  call void @llvm.lifetime.start.p0(i64 4, ptr %12) #4
  call void @llvm.lifetime.start.p0(i64 4, ptr %13) #4
  call void @llvm.lifetime.start.p0(i64 4, ptr %14) #4
  br label %15

15:                                               ; preds = %3
  %16 = load ptr, ptr %6, align 8, !tbaa !11
  %17 = getelementptr inbounds i16, ptr %16, i64 0
  %18 = load i16, ptr %17, align 2, !tbaa !19
  %19 = sext i16 %18 to i32
  %20 = add nsw i32 %19, 32
  %21 = mul i32 16383, %20
  store i32 %21, ptr %7, align 4, !tbaa !13
  %22 = load i32, ptr %7, align 4, !tbaa !13
  store i32 %22, ptr %8, align 4, !tbaa !13
  %23 = load i32, ptr %7, align 4, !tbaa !13
  store i32 %23, ptr %9, align 4, !tbaa !13
  %24 = load i32, ptr %7, align 4, !tbaa !13
  store i32 %24, ptr %10, align 4, !tbaa !13
  %25 = load ptr, ptr %6, align 8, !tbaa !11
  %26 = getelementptr inbounds i16, ptr %25, i64 16
  %27 = load i16, ptr %26, align 2, !tbaa !19
  %28 = sext i16 %27 to i32
  %29 = mul i32 21407, %28
  %30 = load i32, ptr %7, align 4, !tbaa !13
  %31 = add i32 %30, %29
  store i32 %31, ptr %7, align 4, !tbaa !13
  %32 = load ptr, ptr %6, align 8, !tbaa !11
  %33 = getelementptr inbounds i16, ptr %32, i64 16
  %34 = load i16, ptr %33, align 2, !tbaa !19
  %35 = sext i16 %34 to i32
  %36 = mul i32 8867, %35
  %37 = load i32, ptr %8, align 4, !tbaa !13
  %38 = add i32 %37, %36
  store i32 %38, ptr %8, align 4, !tbaa !13
  %39 = load ptr, ptr %6, align 8, !tbaa !11
  %40 = getelementptr inbounds i16, ptr %39, i64 16
  %41 = load i16, ptr %40, align 2, !tbaa !19
  %42 = sext i16 %41 to i32
  %43 = mul i32 -8867, %42
  %44 = load i32, ptr %9, align 4, !tbaa !13
  %45 = add i32 %44, %43
  store i32 %45, ptr %9, align 4, !tbaa !13
  %46 = load ptr, ptr %6, align 8, !tbaa !11
  %47 = getelementptr inbounds i16, ptr %46, i64 16
  %48 = load i16, ptr %47, align 2, !tbaa !19
  %49 = sext i16 %48 to i32
  %50 = mul i32 -21407, %49
  %51 = load i32, ptr %10, align 4, !tbaa !13
  %52 = add i32 %51, %50
  store i32 %52, ptr %10, align 4, !tbaa !13
  %53 = load ptr, ptr %6, align 8, !tbaa !11
  %54 = getelementptr inbounds i16, ptr %53, i64 8
  %55 = load i16, ptr %54, align 2, !tbaa !19
  %56 = sext i16 %55 to i32
  %57 = mul nsw i32 22725, %56
  store i32 %57, ptr %11, align 4, !tbaa !13
  %58 = load ptr, ptr %6, align 8, !tbaa !11
  %59 = getelementptr inbounds i16, ptr %58, i64 8
  %60 = load i16, ptr %59, align 2, !tbaa !19
  %61 = sext i16 %60 to i32
  %62 = mul nsw i32 19266, %61
  store i32 %62, ptr %12, align 4, !tbaa !13
  %63 = load ptr, ptr %6, align 8, !tbaa !11
  %64 = getelementptr inbounds i16, ptr %63, i64 8
  %65 = load i16, ptr %64, align 2, !tbaa !19
  %66 = sext i16 %65 to i32
  %67 = mul nsw i32 12873, %66
  store i32 %67, ptr %13, align 4, !tbaa !13
  %68 = load ptr, ptr %6, align 8, !tbaa !11
  %69 = getelementptr inbounds i16, ptr %68, i64 8
  %70 = load i16, ptr %69, align 2, !tbaa !19
  %71 = sext i16 %70 to i32
  %72 = mul nsw i32 4520, %71
  store i32 %72, ptr %14, align 4, !tbaa !13
  %73 = load ptr, ptr %6, align 8, !tbaa !11
  %74 = getelementptr inbounds i16, ptr %73, i64 24
  %75 = load i16, ptr %74, align 2, !tbaa !19
  %76 = sext i16 %75 to i32
  %77 = mul nsw i32 19266, %76
  %78 = load i32, ptr %11, align 4, !tbaa !13
  %79 = add i32 %78, %77
  store i32 %79, ptr %11, align 4, !tbaa !13
  %80 = load ptr, ptr %6, align 8, !tbaa !11
  %81 = getelementptr inbounds i16, ptr %80, i64 24
  %82 = load i16, ptr %81, align 2, !tbaa !19
  %83 = sext i16 %82 to i32
  %84 = mul nsw i32 -4520, %83
  %85 = load i32, ptr %12, align 4, !tbaa !13
  %86 = add i32 %85, %84
  store i32 %86, ptr %12, align 4, !tbaa !13
  %87 = load ptr, ptr %6, align 8, !tbaa !11
  %88 = getelementptr inbounds i16, ptr %87, i64 24
  %89 = load i16, ptr %88, align 2, !tbaa !19
  %90 = sext i16 %89 to i32
  %91 = mul nsw i32 -22725, %90
  %92 = load i32, ptr %13, align 4, !tbaa !13
  %93 = add i32 %92, %91
  store i32 %93, ptr %13, align 4, !tbaa !13
  %94 = load ptr, ptr %6, align 8, !tbaa !11
  %95 = getelementptr inbounds i16, ptr %94, i64 24
  %96 = load i16, ptr %95, align 2, !tbaa !19
  %97 = sext i16 %96 to i32
  %98 = mul nsw i32 -12873, %97
  %99 = load i32, ptr %14, align 4, !tbaa !13
  %100 = add i32 %99, %98
  store i32 %100, ptr %14, align 4, !tbaa !13
  %101 = load ptr, ptr %6, align 8, !tbaa !11
  %102 = getelementptr inbounds i16, ptr %101, i64 32
  %103 = load i16, ptr %102, align 2, !tbaa !19
  %104 = icmp ne i16 %103, 0
  br i1 %104, label %105, label %134

105:                                              ; preds = %15
  %106 = load ptr, ptr %6, align 8, !tbaa !11
  %107 = getelementptr inbounds i16, ptr %106, i64 32
  %108 = load i16, ptr %107, align 2, !tbaa !19
  %109 = sext i16 %108 to i32
  %110 = mul i32 16383, %109
  %111 = load i32, ptr %7, align 4, !tbaa !13
  %112 = add i32 %111, %110
  store i32 %112, ptr %7, align 4, !tbaa !13
  %113 = load ptr, ptr %6, align 8, !tbaa !11
  %114 = getelementptr inbounds i16, ptr %113, i64 32
  %115 = load i16, ptr %114, align 2, !tbaa !19
  %116 = sext i16 %115 to i32
  %117 = mul i32 -16383, %116
  %118 = load i32, ptr %8, align 4, !tbaa !13
  %119 = add i32 %118, %117
  store i32 %119, ptr %8, align 4, !tbaa !13
  %120 = load ptr, ptr %6, align 8, !tbaa !11
  %121 = getelementptr inbounds i16, ptr %120, i64 32
  %122 = load i16, ptr %121, align 2, !tbaa !19
  %123 = sext i16 %122 to i32
  %124 = mul i32 -16383, %123
  %125 = load i32, ptr %9, align 4, !tbaa !13
  %126 = add i32 %125, %124
  store i32 %126, ptr %9, align 4, !tbaa !13
  %127 = load ptr, ptr %6, align 8, !tbaa !11
  %128 = getelementptr inbounds i16, ptr %127, i64 32
  %129 = load i16, ptr %128, align 2, !tbaa !19
  %130 = sext i16 %129 to i32
  %131 = mul i32 16383, %130
  %132 = load i32, ptr %10, align 4, !tbaa !13
  %133 = add i32 %132, %131
  store i32 %133, ptr %10, align 4, !tbaa !13
  br label %134

134:                                              ; preds = %105, %15
  %135 = load ptr, ptr %6, align 8, !tbaa !11
  %136 = getelementptr inbounds i16, ptr %135, i64 40
  %137 = load i16, ptr %136, align 2, !tbaa !19
  %138 = icmp ne i16 %137, 0
  br i1 %138, label %139, label %168

139:                                              ; preds = %134
  %140 = load ptr, ptr %6, align 8, !tbaa !11
  %141 = getelementptr inbounds i16, ptr %140, i64 40
  %142 = load i16, ptr %141, align 2, !tbaa !19
  %143 = sext i16 %142 to i32
  %144 = mul nsw i32 12873, %143
  %145 = load i32, ptr %11, align 4, !tbaa !13
  %146 = add i32 %145, %144
  store i32 %146, ptr %11, align 4, !tbaa !13
  %147 = load ptr, ptr %6, align 8, !tbaa !11
  %148 = getelementptr inbounds i16, ptr %147, i64 40
  %149 = load i16, ptr %148, align 2, !tbaa !19
  %150 = sext i16 %149 to i32
  %151 = mul nsw i32 -22725, %150
  %152 = load i32, ptr %12, align 4, !tbaa !13
  %153 = add i32 %152, %151
  store i32 %153, ptr %12, align 4, !tbaa !13
  %154 = load ptr, ptr %6, align 8, !tbaa !11
  %155 = getelementptr inbounds i16, ptr %154, i64 40
  %156 = load i16, ptr %155, align 2, !tbaa !19
  %157 = sext i16 %156 to i32
  %158 = mul nsw i32 4520, %157
  %159 = load i32, ptr %13, align 4, !tbaa !13
  %160 = add i32 %159, %158
  store i32 %160, ptr %13, align 4, !tbaa !13
  %161 = load ptr, ptr %6, align 8, !tbaa !11
  %162 = getelementptr inbounds i16, ptr %161, i64 40
  %163 = load i16, ptr %162, align 2, !tbaa !19
  %164 = sext i16 %163 to i32
  %165 = mul nsw i32 19266, %164
  %166 = load i32, ptr %14, align 4, !tbaa !13
  %167 = add i32 %166, %165
  store i32 %167, ptr %14, align 4, !tbaa !13
  br label %168

168:                                              ; preds = %139, %134
  %169 = load ptr, ptr %6, align 8, !tbaa !11
  %170 = getelementptr inbounds i16, ptr %169, i64 48
  %171 = load i16, ptr %170, align 2, !tbaa !19
  %172 = icmp ne i16 %171, 0
  br i1 %172, label %173, label %202

173:                                              ; preds = %168
  %174 = load ptr, ptr %6, align 8, !tbaa !11
  %175 = getelementptr inbounds i16, ptr %174, i64 48
  %176 = load i16, ptr %175, align 2, !tbaa !19
  %177 = sext i16 %176 to i32
  %178 = mul i32 8867, %177
  %179 = load i32, ptr %7, align 4, !tbaa !13
  %180 = add i32 %179, %178
  store i32 %180, ptr %7, align 4, !tbaa !13
  %181 = load ptr, ptr %6, align 8, !tbaa !11
  %182 = getelementptr inbounds i16, ptr %181, i64 48
  %183 = load i16, ptr %182, align 2, !tbaa !19
  %184 = sext i16 %183 to i32
  %185 = mul i32 -21407, %184
  %186 = load i32, ptr %8, align 4, !tbaa !13
  %187 = add i32 %186, %185
  store i32 %187, ptr %8, align 4, !tbaa !13
  %188 = load ptr, ptr %6, align 8, !tbaa !11
  %189 = getelementptr inbounds i16, ptr %188, i64 48
  %190 = load i16, ptr %189, align 2, !tbaa !19
  %191 = sext i16 %190 to i32
  %192 = mul i32 21407, %191
  %193 = load i32, ptr %9, align 4, !tbaa !13
  %194 = add i32 %193, %192
  store i32 %194, ptr %9, align 4, !tbaa !13
  %195 = load ptr, ptr %6, align 8, !tbaa !11
  %196 = getelementptr inbounds i16, ptr %195, i64 48
  %197 = load i16, ptr %196, align 2, !tbaa !19
  %198 = sext i16 %197 to i32
  %199 = mul i32 -8867, %198
  %200 = load i32, ptr %10, align 4, !tbaa !13
  %201 = add i32 %200, %199
  store i32 %201, ptr %10, align 4, !tbaa !13
  br label %202

202:                                              ; preds = %173, %168
  %203 = load ptr, ptr %6, align 8, !tbaa !11
  %204 = getelementptr inbounds i16, ptr %203, i64 56
  %205 = load i16, ptr %204, align 2, !tbaa !19
  %206 = icmp ne i16 %205, 0
  br i1 %206, label %207, label %236

207:                                              ; preds = %202
  %208 = load ptr, ptr %6, align 8, !tbaa !11
  %209 = getelementptr inbounds i16, ptr %208, i64 56
  %210 = load i16, ptr %209, align 2, !tbaa !19
  %211 = sext i16 %210 to i32
  %212 = mul nsw i32 4520, %211
  %213 = load i32, ptr %11, align 4, !tbaa !13
  %214 = add i32 %213, %212
  store i32 %214, ptr %11, align 4, !tbaa !13
  %215 = load ptr, ptr %6, align 8, !tbaa !11
  %216 = getelementptr inbounds i16, ptr %215, i64 56
  %217 = load i16, ptr %216, align 2, !tbaa !19
  %218 = sext i16 %217 to i32
  %219 = mul nsw i32 -12873, %218
  %220 = load i32, ptr %12, align 4, !tbaa !13
  %221 = add i32 %220, %219
  store i32 %221, ptr %12, align 4, !tbaa !13
  %222 = load ptr, ptr %6, align 8, !tbaa !11
  %223 = getelementptr inbounds i16, ptr %222, i64 56
  %224 = load i16, ptr %223, align 2, !tbaa !19
  %225 = sext i16 %224 to i32
  %226 = mul nsw i32 19266, %225
  %227 = load i32, ptr %13, align 4, !tbaa !13
  %228 = add i32 %227, %226
  store i32 %228, ptr %13, align 4, !tbaa !13
  %229 = load ptr, ptr %6, align 8, !tbaa !11
  %230 = getelementptr inbounds i16, ptr %229, i64 56
  %231 = load i16, ptr %230, align 2, !tbaa !19
  %232 = sext i16 %231 to i32
  %233 = mul nsw i32 -22725, %232
  %234 = load i32, ptr %14, align 4, !tbaa !13
  %235 = add i32 %234, %233
  store i32 %235, ptr %14, align 4, !tbaa !13
  br label %236

236:                                              ; preds = %207, %202
  br label %237

237:                                              ; preds = %236
  br label %238

238:                                              ; preds = %237
  %239 = load ptr, ptr %4, align 8, !tbaa !4
  %240 = getelementptr inbounds i8, ptr %239, i64 0
  %241 = load i8, ptr %240, align 1, !tbaa !18
  %242 = zext i8 %241 to i32
  %243 = load i32, ptr %7, align 4, !tbaa !13
  %244 = load i32, ptr %11, align 4, !tbaa !13
  %245 = add i32 %243, %244
  %246 = ashr i32 %245, 20
  %247 = add nsw i32 %242, %246
  %248 = call zeroext i8 @av_clip_uint8_c(i32 noundef %247) #5
  %249 = load ptr, ptr %4, align 8, !tbaa !4
  %250 = getelementptr inbounds i8, ptr %249, i64 0
  store i8 %248, ptr %250, align 1, !tbaa !18
  %251 = load i64, ptr %5, align 8, !tbaa !9
  %252 = load ptr, ptr %4, align 8, !tbaa !4
  %253 = getelementptr inbounds i8, ptr %252, i64 %251
  store ptr %253, ptr %4, align 8, !tbaa !4
  %254 = load ptr, ptr %4, align 8, !tbaa !4
  %255 = getelementptr inbounds i8, ptr %254, i64 0
  %256 = load i8, ptr %255, align 1, !tbaa !18
  %257 = zext i8 %256 to i32
  %258 = load i32, ptr %8, align 4, !tbaa !13
  %259 = load i32, ptr %12, align 4, !tbaa !13
  %260 = add i32 %258, %259
  %261 = ashr i32 %260, 20
  %262 = add nsw i32 %257, %261
  %263 = call zeroext i8 @av_clip_uint8_c(i32 noundef %262) #5
  %264 = load ptr, ptr %4, align 8, !tbaa !4
  %265 = getelementptr inbounds i8, ptr %264, i64 0
  store i8 %263, ptr %265, align 1, !tbaa !18
  %266 = load i64, ptr %5, align 8, !tbaa !9
  %267 = load ptr, ptr %4, align 8, !tbaa !4
  %268 = getelementptr inbounds i8, ptr %267, i64 %266
  store ptr %268, ptr %4, align 8, !tbaa !4
  %269 = load ptr, ptr %4, align 8, !tbaa !4
  %270 = getelementptr inbounds i8, ptr %269, i64 0
  %271 = load i8, ptr %270, align 1, !tbaa !18
  %272 = zext i8 %271 to i32
  %273 = load i32, ptr %9, align 4, !tbaa !13
  %274 = load i32, ptr %13, align 4, !tbaa !13
  %275 = add i32 %273, %274
  %276 = ashr i32 %275, 20
  %277 = add nsw i32 %272, %276
  %278 = call zeroext i8 @av_clip_uint8_c(i32 noundef %277) #5
  %279 = load ptr, ptr %4, align 8, !tbaa !4
  %280 = getelementptr inbounds i8, ptr %279, i64 0
  store i8 %278, ptr %280, align 1, !tbaa !18
  %281 = load i64, ptr %5, align 8, !tbaa !9
  %282 = load ptr, ptr %4, align 8, !tbaa !4
  %283 = getelementptr inbounds i8, ptr %282, i64 %281
  store ptr %283, ptr %4, align 8, !tbaa !4
  %284 = load ptr, ptr %4, align 8, !tbaa !4
  %285 = getelementptr inbounds i8, ptr %284, i64 0
  %286 = load i8, ptr %285, align 1, !tbaa !18
  %287 = zext i8 %286 to i32
  %288 = load i32, ptr %10, align 4, !tbaa !13
  %289 = load i32, ptr %14, align 4, !tbaa !13
  %290 = add i32 %288, %289
  %291 = ashr i32 %290, 20
  %292 = add nsw i32 %287, %291
  %293 = call zeroext i8 @av_clip_uint8_c(i32 noundef %292) #5
  %294 = load ptr, ptr %4, align 8, !tbaa !4
  %295 = getelementptr inbounds i8, ptr %294, i64 0
  store i8 %293, ptr %295, align 1, !tbaa !18
  %296 = load i64, ptr %5, align 8, !tbaa !9
  %297 = load ptr, ptr %4, align 8, !tbaa !4
  %298 = getelementptr inbounds i8, ptr %297, i64 %296
  store ptr %298, ptr %4, align 8, !tbaa !4
  %299 = load ptr, ptr %4, align 8, !tbaa !4
  %300 = getelementptr inbounds i8, ptr %299, i64 0
  %301 = load i8, ptr %300, align 1, !tbaa !18
  %302 = zext i8 %301 to i32
  %303 = load i32, ptr %10, align 4, !tbaa !13
  %304 = load i32, ptr %14, align 4, !tbaa !13
  %305 = sub i32 %303, %304
  %306 = ashr i32 %305, 20
  %307 = add nsw i32 %302, %306
  %308 = call zeroext i8 @av_clip_uint8_c(i32 noundef %307) #5
  %309 = load ptr, ptr %4, align 8, !tbaa !4
  %310 = getelementptr inbounds i8, ptr %309, i64 0
  store i8 %308, ptr %310, align 1, !tbaa !18
  %311 = load i64, ptr %5, align 8, !tbaa !9
  %312 = load ptr, ptr %4, align 8, !tbaa !4
  %313 = getelementptr inbounds i8, ptr %312, i64 %311
  store ptr %313, ptr %4, align 8, !tbaa !4
  %314 = load ptr, ptr %4, align 8, !tbaa !4
  %315 = getelementptr inbounds i8, ptr %314, i64 0
  %316 = load i8, ptr %315, align 1, !tbaa !18
  %317 = zext i8 %316 to i32
  %318 = load i32, ptr %9, align 4, !tbaa !13
  %319 = load i32, ptr %13, align 4, !tbaa !13
  %320 = sub i32 %318, %319
  %321 = ashr i32 %320, 20
  %322 = add nsw i32 %317, %321
  %323 = call zeroext i8 @av_clip_uint8_c(i32 noundef %322) #5
  %324 = load ptr, ptr %4, align 8, !tbaa !4
  %325 = getelementptr inbounds i8, ptr %324, i64 0
  store i8 %323, ptr %325, align 1, !tbaa !18
  %326 = load i64, ptr %5, align 8, !tbaa !9
  %327 = load ptr, ptr %4, align 8, !tbaa !4
  %328 = getelementptr inbounds i8, ptr %327, i64 %326
  store ptr %328, ptr %4, align 8, !tbaa !4
  %329 = load ptr, ptr %4, align 8, !tbaa !4
  %330 = getelementptr inbounds i8, ptr %329, i64 0
  %331 = load i8, ptr %330, align 1, !tbaa !18
  %332 = zext i8 %331 to i32
  %333 = load i32, ptr %8, align 4, !tbaa !13
  %334 = load i32, ptr %12, align 4, !tbaa !13
  %335 = sub i32 %333, %334
  %336 = ashr i32 %335, 20
  %337 = add nsw i32 %332, %336
  %338 = call zeroext i8 @av_clip_uint8_c(i32 noundef %337) #5
  %339 = load ptr, ptr %4, align 8, !tbaa !4
  %340 = getelementptr inbounds i8, ptr %339, i64 0
  store i8 %338, ptr %340, align 1, !tbaa !18
  %341 = load i64, ptr %5, align 8, !tbaa !9
  %342 = load ptr, ptr %4, align 8, !tbaa !4
  %343 = getelementptr inbounds i8, ptr %342, i64 %341
  store ptr %343, ptr %4, align 8, !tbaa !4
  %344 = load ptr, ptr %4, align 8, !tbaa !4
  %345 = getelementptr inbounds i8, ptr %344, i64 0
  %346 = load i8, ptr %345, align 1, !tbaa !18
  %347 = zext i8 %346 to i32
  %348 = load i32, ptr %7, align 4, !tbaa !13
  %349 = load i32, ptr %11, align 4, !tbaa !13
  %350 = sub i32 %348, %349
  %351 = ashr i32 %350, 20
  %352 = add nsw i32 %347, %351
  %353 = call zeroext i8 @av_clip_uint8_c(i32 noundef %352) #5
  %354 = load ptr, ptr %4, align 8, !tbaa !4
  %355 = getelementptr inbounds i8, ptr %354, i64 0
  store i8 %353, ptr %355, align 1, !tbaa !18
  call void @llvm.lifetime.end.p0(i64 4, ptr %14) #4
  call void @llvm.lifetime.end.p0(i64 4, ptr %13) #4
  call void @llvm.lifetime.end.p0(i64 4, ptr %12) #4
  call void @llvm.lifetime.end.p0(i64 4, ptr %11) #4
  call void @llvm.lifetime.end.p0(i64 4, ptr %10) #4
  call void @llvm.lifetime.end.p0(i64 4, ptr %9) #4
  call void @llvm.lifetime.end.p0(i64 4, ptr %8) #4
  call void @llvm.lifetime.end.p0(i64 4, ptr %7) #4
  ret void
}