; Function Attrs: inlinehint mustprogress nofree norecurse nosync nounwind willreturn memory(readwrite, inaccessiblemem: none) uwtable
define internal fastcc void @idctSparseColAdd_int16_8bit(ptr noundef captures(none) %0, i64 noundef %1, ptr noundef readonly captures(none) %2) unnamed_addr #3 {
  %4 = load i16, ptr %2, align 2, !tbaa !6
  %5 = sext i16 %4 to i32
  %6 = mul nsw i32 %5, 16383
  %7 = add nsw i32 %6, 524256
  %8 = getelementptr inbounds nuw i8, ptr %2, i64 32
  %9 = load i16, ptr %8, align 2, !tbaa !6
  %10 = sext i16 %9 to i32
  %11 = mul nsw i32 %10, 21407
  %12 = add nsw i32 %7, %11
  %13 = mul nsw i32 %10, 8867
  %14 = add nsw i32 %7, %13
  %15 = mul nsw i32 %10, -8867
  %16 = add nsw i32 %7, %15
  %17 = mul nsw i32 %10, -21407
  %18 = add nsw i32 %7, %17
  %19 = getelementptr inbounds nuw i8, ptr %2, i64 16
  %20 = load i16, ptr %19, align 2, !tbaa !6
  %21 = sext i16 %20 to i32
  %22 = mul nsw i32 %21, 22725
  %23 = mul nsw i32 %21, 19266
  %24 = mul nsw i32 %21, 12873
  %25 = mul nsw i32 %21, 4520
  %26 = getelementptr inbounds nuw i8, ptr %2, i64 48
  %27 = load i16, ptr %26, align 2, !tbaa !6
  %28 = sext i16 %27 to i32
  %29 = mul nsw i32 %28, 19266
  %30 = add nsw i32 %29, %22
  %31 = mul nsw i32 %28, -4520
  %32 = add nsw i32 %31, %23
  %33 = mul nsw i32 %28, -22725
  %34 = add nsw i32 %33, %24
  %35 = mul nsw i32 %28, -12873
  %36 = add nsw i32 %35, %25
  %37 = getelementptr inbounds nuw i8, ptr %2, i64 64
  %38 = load i16, ptr %37, align 2, !tbaa !6
  %.not = icmp eq i16 %38, 0
  br i1 %.not, label %47, label %39

39:                                               ; preds = %3
  %40 = sext i16 %38 to i32
  %41 = mul nsw i32 %40, 16383
  %42 = add nsw i32 %41, %12
  %43 = mul nsw i32 %40, -16383
  %44 = add nsw i32 %43, %14
  %45 = add nsw i32 %43, %16
  %46 = add nsw i32 %41, %18
  br label %47

47:                                               ; preds = %39, %3
  %.0117 = phi i32 [ %42, %39 ], [ %12, %3 ]
  %.0115 = phi i32 [ %44, %39 ], [ %14, %3 ]
  %.0113 = phi i32 [ %45, %39 ], [ %16, %3 ]
  %.0111 = phi i32 [ %46, %39 ], [ %18, %3 ]
  %48 = getelementptr inbounds nuw i8, ptr %2, i64 80
  %49 = load i16, ptr %48, align 2, !tbaa !6
  %.not123 = icmp eq i16 %49, 0
  br i1 %.not123, label %60, label %50

50:                                               ; preds = %47
  %51 = sext i16 %49 to i32
  %52 = mul nsw i32 %51, 12873
  %53 = add nsw i32 %52, %30
  %54 = mul nsw i32 %51, -22725
  %55 = add nsw i32 %54, %32
  %56 = mul nsw i32 %51, 4520
  %57 = add nsw i32 %56, %34
  %58 = mul nsw i32 %51, 19266
  %59 = add nsw i32 %58, %36
  br label %60

60:                                               ; preds = %50, %47
  %.0109 = phi i32 [ %53, %50 ], [ %30, %47 ]
  %.0107 = phi i32 [ %55, %50 ], [ %32, %47 ]
  %.0105 = phi i32 [ %57, %50 ], [ %34, %47 ]
  %.0 = phi i32 [ %59, %50 ], [ %36, %47 ]
  %61 = getelementptr inbounds nuw i8, ptr %2, i64 96
  %62 = load i16, ptr %61, align 2, !tbaa !6
  %.not124 = icmp eq i16 %62, 0
  br i1 %.not124, label %73, label %63

63:                                               ; preds = %60
  %64 = sext i16 %62 to i32
  %65 = mul nsw i32 %64, 8867
  %66 = add nsw i32 %65, %.0117
  %67 = mul nsw i32 %64, -21407
  %68 = add nsw i32 %67, %.0115
  %69 = mul nsw i32 %64, 21407
  %70 = add nsw i32 %69, %.0113
  %71 = mul nsw i32 %64, -8867
  %72 = add nsw i32 %71, %.0111
  br label %73

73:                                               ; preds = %63, %60
  %.1118 = phi i32 [ %66, %63 ], [ %.0117, %60 ]
  %.1116 = phi i32 [ %68, %63 ], [ %.0115, %60 ]
  %.1114 = phi i32 [ %70, %63 ], [ %.0113, %60 ]
  %.1112 = phi i32 [ %72, %63 ], [ %.0111, %60 ]
  %74 = getelementptr inbounds nuw i8, ptr %2, i64 112
  %75 = load i16, ptr %74, align 2, !tbaa !6
  %.not125 = icmp eq i16 %75, 0
  br i1 %.not125, label %86, label %76

76:                                               ; preds = %73
  %77 = sext i16 %75 to i32
  %78 = mul nsw i32 %77, 4520
  %79 = add nsw i32 %78, %.0109
  %80 = mul nsw i32 %77, -12873
  %81 = add nsw i32 %80, %.0107
  %82 = mul nsw i32 %77, 19266
  %83 = add nsw i32 %82, %.0105
  %84 = mul nsw i32 %77, -22725
  %85 = add nsw i32 %84, %.0
  br label %86

86:                                               ; preds = %76, %73
  %.1110 = phi i32 [ %79, %76 ], [ %.0109, %73 ]
  %.1108 = phi i32 [ %81, %76 ], [ %.0107, %73 ]
  %.1106 = phi i32 [ %83, %76 ], [ %.0105, %73 ]
  %.1 = phi i32 [ %85, %76 ], [ %.0, %73 ]
  %87 = load i8, ptr %0, align 1, !tbaa !10
  %88 = zext i8 %87 to i32
  %89 = add i32 %.1110, %.1118
  %90 = ashr i32 %89, 20
  %91 = add nsw i32 %90, %88
  %.not.i = icmp ult i32 %91, 256
  %isnotneg.i = icmp sgt i32 %91, -1
  %92 = sext i1 %isnotneg.i to i8
  %93 = trunc nuw i32 %91 to i8
  %.0.i = select i1 %.not.i, i8 %93, i8 %92
  store i8 %.0.i, ptr %0, align 1, !tbaa !10
  %94 = getelementptr inbounds i8, ptr %0, i64 %1
  %95 = load i8, ptr %94, align 1, !tbaa !10
  %96 = zext i8 %95 to i32
  %97 = add i32 %.1108, %.1116
  %98 = ashr i32 %97, 20
  %99 = add nsw i32 %98, %96
  %.not.i126 = icmp ult i32 %99, 256
  %isnotneg.i127 = icmp sgt i32 %99, -1
  %100 = sext i1 %isnotneg.i127 to i8
  %101 = trunc nuw i32 %99 to i8
  %.0.i128 = select i1 %.not.i126, i8 %101, i8 %100
  store i8 %.0.i128, ptr %94, align 1, !tbaa !10
  %102 = getelementptr inbounds i8, ptr %94, i64 %1
  %103 = load i8, ptr %102, align 1, !tbaa !10
  %104 = zext i8 %103 to i32
  %105 = add i32 %.1106, %.1114
  %106 = ashr i32 %105, 20
  %107 = add nsw i32 %106, %104
  %.not.i129 = icmp ult i32 %107, 256
  %isnotneg.i130 = icmp sgt i32 %107, -1
  %108 = sext i1 %isnotneg.i130 to i8
  %109 = trunc nuw i32 %107 to i8
  %.0.i131 = select i1 %.not.i129, i8 %109, i8 %108
  store i8 %.0.i131, ptr %102, align 1, !tbaa !10
  %110 = getelementptr inbounds i8, ptr %102, i64 %1
  %111 = load i8, ptr %110, align 1, !tbaa !10
  %112 = zext i8 %111 to i32
  %113 = add i32 %.1, %.1112
  %114 = ashr i32 %113, 20
  %115 = add nsw i32 %114, %112
  %.not.i132 = icmp ult i32 %115, 256
  %isnotneg.i133 = icmp sgt i32 %115, -1
  %116 = sext i1 %isnotneg.i133 to i8
  %117 = trunc nuw i32 %115 to i8
  %.0.i134 = select i1 %.not.i132, i8 %117, i8 %116
  store i8 %.0.i134, ptr %110, align 1, !tbaa !10
  %118 = getelementptr inbounds i8, ptr %110, i64 %1
  %119 = load i8, ptr %118, align 1, !tbaa !10
  %120 = zext i8 %119 to i32
  %121 = sub i32 %.1112, %.1
  %122 = ashr i32 %121, 20
  %123 = add nsw i32 %122, %120
  %.not.i135 = icmp ult i32 %123, 256
  %isnotneg.i136 = icmp sgt i32 %123, -1
  %124 = sext i1 %isnotneg.i136 to i8
  %125 = trunc nuw i32 %123 to i8
  %.0.i137 = select i1 %.not.i135, i8 %125, i8 %124
  store i8 %.0.i137, ptr %118, align 1, !tbaa !10
  %126 = getelementptr inbounds i8, ptr %118, i64 %1
  %127 = load i8, ptr %126, align 1, !tbaa !10
  %128 = zext i8 %127 to i32
  %129 = sub i32 %.1114, %.1106
  %130 = ashr i32 %129, 20
  %131 = add nsw i32 %130, %128
  %.not.i138 = icmp ult i32 %131, 256
  %isnotneg.i139 = icmp sgt i32 %131, -1
  %132 = sext i1 %isnotneg.i139 to i8
  %133 = trunc nuw i32 %131 to i8
  %.0.i140 = select i1 %.not.i138, i8 %133, i8 %132
  store i8 %.0.i140, ptr %126, align 1, !tbaa !10
  %134 = getelementptr inbounds i8, ptr %126, i64 %1
  %135 = load i8, ptr %134, align 1, !tbaa !10
  %136 = zext i8 %135 to i32
  %137 = sub i32 %.1116, %.1108
  %138 = ashr i32 %137, 20
  %139 = add nsw i32 %138, %136
  %.not.i141 = icmp ult i32 %139, 256
  %isnotneg.i142 = icmp sgt i32 %139, -1
  %140 = sext i1 %isnotneg.i142 to i8
  %141 = trunc nuw i32 %139 to i8
  %.0.i143 = select i1 %.not.i141, i8 %141, i8 %140
  store i8 %.0.i143, ptr %134, align 1, !tbaa !10
  %142 = getelementptr inbounds i8, ptr %134, i64 %1
  %143 = load i8, ptr %142, align 1, !tbaa !10
  %144 = zext i8 %143 to i32
  %145 = sub i32 %.1118, %.1110
  %146 = ashr i32 %145, 20
  %147 = add nsw i32 %146, %144
  %.not.i144 = icmp ult i32 %147, 256
  %isnotneg.i145 = icmp sgt i32 %147, -1
  %148 = sext i1 %isnotneg.i145 to i8
  %149 = trunc nuw i32 %147 to i8
  %.0.i146 = select i1 %.not.i144, i8 %149, i8 %148
  store i8 %.0.i146, ptr %142, align 1, !tbaa !10
  ret void
}